target datalayout = "e-m:e-p270:32:32-p271:32:32-p272:64:64-i64:64-i128:128-f80:128-n8:16:32:64-S128"
target triple = "x86_64-pc-linux-gnu"

%struct.InvalMessageArray = type { ptr, i32 }
%struct.TransInvalidationInfo = type { %struct.InvalidationInfo, %struct.InvalidationMsgsGroup, ptr, i32 }
%struct.InvalidationInfo = type { %struct.InvalidationMsgsGroup, i8 }
%struct.InvalidationMsgsGroup = type { [2 x i32], [2 x i32] }

@.str.1 = private unnamed_addr constant [8 x i8] c"inval.c\00", align 1
@transInvalInfo = internal global ptr null, align 8
@InvalMessageArrays = internal global [2 x %struct.InvalMessageArray] zeroinitializer, align 16
@TopTransactionContext = external global ptr, align 8
@.str.11 = private unnamed_addr constant [72 x i8] c"cannot start a subtransaction when there are unprocessed inval messages\00", align 1
@__func__.PrepareInvalidationState = private unnamed_addr constant [25 x i8] c"PrepareInvalidationState\00", align 1

; Function Attrs: nounwind uwtable
define internal ptr @PrepareInvalidationState() #0 {
  %1 = alloca ptr, align 8
  %2 = alloca ptr, align 8
  %3 = alloca i32, align 4
  call void @llvm.lifetime.start.p0(i64 8, ptr %2) #7
  %4 = load ptr, ptr @transInvalInfo, align 8
  %5 = icmp ne ptr %4, null
  br i1 %5, label %6, label %14

6:                                                ; preds = %0
  %7 = load ptr, ptr @transInvalInfo, align 8
  %8 = getelementptr inbounds nuw %struct.TransInvalidationInfo, ptr %7, i32 0, i32 3
  %9 = load i32, ptr %8, align 8
  %10 = call i32 @GetCurrentTransactionNestLevel()
  %11 = icmp eq i32 %9, %10
  br i1 %11, label %12, label %14

12:                                               ; preds = %6
  %13 = load ptr, ptr @transInvalInfo, align 8
  store ptr %13, ptr %1, align 8
  store i32 1, ptr %3, align 4
  br label %146

14:                                               ; preds = %6, %0
  %15 = load ptr, ptr @TopTransactionContext, align 8
  %16 = call ptr @MemoryContextAllocZero(ptr noundef %15, i64 noundef 56)
  store ptr %16, ptr %2, align 8
  %17 = load ptr, ptr @transInvalInfo, align 8
  %18 = load ptr, ptr %2, align 8
  %19 = getelementptr inbounds nuw %struct.TransInvalidationInfo, ptr %18, i32 0, i32 2
  store ptr %17, ptr %19, align 8
  %20 = call i32 @GetCurrentTransactionNestLevel()
  %21 = load ptr, ptr %2, align 8
  %22 = getelementptr inbounds nuw %struct.TransInvalidationInfo, ptr %21, i32 0, i32 3
  store i32 %20, ptr %22, align 8
  %23 = load ptr, ptr @transInvalInfo, align 8
  %24 = icmp ne ptr %23, null
  br i1 %24, label %25, label %142

25:                                               ; preds = %14
  %26 = load ptr, ptr @transInvalInfo, align 8
  %27 = getelementptr inbounds nuw %struct.TransInvalidationInfo, ptr %26, i32 0, i32 0
  %28 = getelementptr inbounds nuw %struct.InvalidationInfo, ptr %27, i32 0, i32 0
  %29 = getelementptr inbounds nuw %struct.InvalidationMsgsGroup, ptr %28, i32 0, i32 1
  %30 = getelementptr inbounds [2 x i32], ptr %29, i64 0, i64 0
  %31 = load i32, ptr %30, align 8
  %32 = load ptr, ptr @transInvalInfo, align 8
  %33 = getelementptr inbounds nuw %struct.TransInvalidationInfo, ptr %32, i32 0, i32 0
  %34 = getelementptr inbounds nuw %struct.InvalidationInfo, ptr %33, i32 0, i32 0
  %35 = getelementptr inbounds nuw %struct.InvalidationMsgsGroup, ptr %34, i32 0, i32 0
  %36 = getelementptr inbounds [2 x i32], ptr %35, i64 0, i64 0
  %37 = load i32, ptr %36, align 8
  %38 = sub i32 %31, %37
  %39 = load ptr, ptr @transInvalInfo, align 8
  %40 = getelementptr inbounds nuw %struct.TransInvalidationInfo, ptr %39, i32 0, i32 0
  %41 = getelementptr inbounds nuw %struct.InvalidationInfo, ptr %40, i32 0, i32 0
  %42 = getelementptr inbounds nuw %struct.InvalidationMsgsGroup, ptr %41, i32 0, i32 1
  %43 = getelementptr inbounds [2 x i32], ptr %42, i64 0, i64 1
  %44 = load i32, ptr %43, align 4
  %45 = load ptr, ptr @transInvalInfo, align 8
  %46 = getelementptr inbounds nuw %struct.TransInvalidationInfo, ptr %45, i32 0, i32 0
  %47 = getelementptr inbounds nuw %struct.InvalidationInfo, ptr %46, i32 0, i32 0
  %48 = getelementptr inbounds nuw %struct.InvalidationMsgsGroup, ptr %47, i32 0, i32 0
  %49 = getelementptr inbounds [2 x i32], ptr %48, i64 0, i64 1
  %50 = load i32, ptr %49, align 4
  %51 = sub i32 %44, %50
  %52 = add i32 %38, %51
  %53 = icmp ne i32 %52, 0
  br i1 %53, label %54, label %65

54:                                               ; preds = %25
  br label %55

55:                                               ; preds = %54
  br i1 true, label %56, label %58

56:                                               ; preds = %55
  %57 = call zeroext i1 @errstart_cold(i32 noundef 21, ptr noundef null) #8
  br i1 %57, label %60, label %62

58:                                               ; preds = %55
  %59 = call zeroext i1 @errstart(i32 noundef 21, ptr noundef null)
  br i1 %59, label %60, label %62

60:                                               ; preds = %58, %56
  %61 = call i32 (ptr, ...) @errmsg_internal(ptr noundef @.str.11)
  call void @errfinish(ptr noundef @.str.1, i32 noundef 664, ptr noundef @__func__.PrepareInvalidationState)
  br label %62

62:                                               ; preds = %60, %58, %56
  unreachable

63:                                               ; No predecessors!
  br label %64

64:                                               ; preds = %63
  br label %65

65:                                               ; preds = %64, %25
  br label %66

66:                                               ; preds = %65
  br label %67

67:                                               ; preds = %66
  %68 = load ptr, ptr @transInvalInfo, align 8
  %69 = getelementptr inbounds nuw %struct.TransInvalidationInfo, ptr %68, i32 0, i32 0
  %70 = getelementptr inbounds nuw %struct.InvalidationInfo, ptr %69, i32 0, i32 0
  %71 = getelementptr inbounds nuw %struct.InvalidationMsgsGroup, ptr %70, i32 0, i32 1
  %72 = getelementptr inbounds [2 x i32], ptr %71, i64 0, i64 0
  %73 = load i32, ptr %72, align 8
  %74 = load ptr, ptr %2, align 8
  %75 = getelementptr inbounds nuw %struct.TransInvalidationInfo, ptr %74, i32 0, i32 1
  %76 = getelementptr inbounds nuw %struct.InvalidationMsgsGroup, ptr %75, i32 0, i32 1
  %77 = getelementptr inbounds [2 x i32], ptr %76, i64 0, i64 0
  store i32 %73, ptr %77, align 4
  %78 = load ptr, ptr %2, align 8
  %79 = getelementptr inbounds nuw %struct.TransInvalidationInfo, ptr %78, i32 0, i32 1
  %80 = getelementptr inbounds nuw %struct.InvalidationMsgsGroup, ptr %79, i32 0, i32 0
  %81 = getelementptr inbounds [2 x i32], ptr %80, i64 0, i64 0
  store i32 %73, ptr %81, align 4
  br label %82

82:                                               ; preds = %67
  br label %83

83:                                               ; preds = %82
  br label %84

84:                                               ; preds = %83
  %85 = load ptr, ptr @transInvalInfo, align 8
  %86 = getelementptr inbounds nuw %struct.TransInvalidationInfo, ptr %85, i32 0, i32 0
  %87 = getelementptr inbounds nuw %struct.InvalidationInfo, ptr %86, i32 0, i32 0
  %88 = getelementptr inbounds nuw %struct.InvalidationMsgsGroup, ptr %87, i32 0, i32 1
  %89 = getelementptr inbounds [2 x i32], ptr %88, i64 0, i64 1
  %90 = load i32, ptr %89, align 4
  %91 = load ptr, ptr %2, align 8
  %92 = getelementptr inbounds nuw %struct.TransInvalidationInfo, ptr %91, i32 0, i32 1
  %93 = getelementptr inbounds nuw %struct.InvalidationMsgsGroup, ptr %92, i32 0, i32 1
  %94 = getelementptr inbounds [2 x i32], ptr %93, i64 0, i64 1
  store i32 %90, ptr %94, align 4
  %95 = load ptr, ptr %2, align 8
  %96 = getelementptr inbounds nuw %struct.TransInvalidationInfo, ptr %95, i32 0, i32 1
  %97 = getelementptr inbounds nuw %struct.InvalidationMsgsGroup, ptr %96, i32 0, i32 0
  %98 = getelementptr inbounds [2 x i32], ptr %97, i64 0, i64 1
  store i32 %90, ptr %98, align 4
  br label %99

99:                                               ; preds = %84
  br label %100

100:                                              ; preds = %99
  br label %101

101:                                              ; preds = %100
  br label %102

102:                                              ; preds = %101
  br label %103

103:                                              ; preds = %102
  br label %104

104:                                              ; preds = %103
  %105 = load ptr, ptr %2, align 8
  %106 = getelementptr inbounds nuw %struct.TransInvalidationInfo, ptr %105, i32 0, i32 1
  %107 = getelementptr inbounds nuw %struct.InvalidationMsgsGroup, ptr %106, i32 0, i32 1
  %108 = getelementptr inbounds [2 x i32], ptr %107, i64 0, i64 0
  %109 = load i32, ptr %108, align 4
  %110 = load ptr, ptr %2, align 8
  %111 = getelementptr inbounds nuw %struct.TransInvalidationInfo, ptr %110, i32 0, i32 0
  %112 = getelementptr inbounds nuw %struct.InvalidationInfo, ptr %111, i32 0, i32 0
  %113 = getelementptr inbounds nuw %struct.InvalidationMsgsGroup, ptr %112, i32 0, i32 1
  %114 = getelementptr inbounds [2 x i32], ptr %113, i64 0, i64 0
  store i32 %109, ptr %114, align 8
  %115 = load ptr, ptr %2, align 8
  %116 = getelementptr inbounds nuw %struct.TransInvalidationInfo, ptr %115, i32 0, i32 0
  %117 = getelementptr inbounds nuw %struct.InvalidationInfo, ptr %116, i32 0, i32 0
  %118 = getelementptr inbounds nuw %struct.InvalidationMsgsGroup, ptr %117, i32 0, i32 0
  %119 = getelementptr inbounds [2 x i32], ptr %118, i64 0, i64 0
  store i32 %109, ptr %119, align 8
  br label %120

120:                                              ; preds = %104
  br label %121

121:                                              ; preds = %120
  br label %122

122:                                              ; preds = %121
  %123 = load ptr, ptr %2, align 8
  %124 = getelementptr inbounds nuw %struct.TransInvalidationInfo, ptr %123, i32 0, i32 1
  %125 = getelementptr inbounds nuw %struct.InvalidationMsgsGroup, ptr %124, i32 0, i32 1
  %126 = getelementptr inbounds [2 x i32], ptr %125, i64 0, i64 1
  %127 = load i32, ptr %126, align 4
  %128 = load ptr, ptr %2, align 8
  %129 = getelementptr inbounds nuw %struct.TransInvalidationInfo, ptr %128, i32 0, i32 0
  %130 = getelementptr inbounds nuw %struct.InvalidationInfo, ptr %129, i32 0, i32 0
  %131 = getelementptr inbounds nuw %struct.InvalidationMsgsGroup, ptr %130, i32 0, i32 1
  %132 = getelementptr inbounds [2 x i32], ptr %131, i64 0, i64 1
  store i32 %127, ptr %132, align 4
  %133 = load ptr, ptr %2, align 8
  %134 = getelementptr inbounds nuw %struct.TransInvalidationInfo, ptr %133, i32 0, i32 0
  %135 = getelementptr inbounds nuw %struct.InvalidationInfo, ptr %134, i32 0, i32 0
  %136 = getelementptr inbounds nuw %struct.InvalidationMsgsGroup, ptr %135, i32 0, i32 0
  %137 = getelementptr inbounds [2 x i32], ptr %136, i64 0, i64 1
  store i32 %127, ptr %137, align 4
  br label %138

138:                                              ; preds = %122
  br label %139

139:                                              ; preds = %138
  br label %140

140:                                              ; preds = %139
  br label %141

141:                                              ; preds = %140
  br label %143

142:                                              ; preds = %14
  store ptr null, ptr @InvalMessageArrays, align 16
  store i32 0, ptr getelementptr inbounds nuw (%struct.InvalMessageArray, ptr @InvalMessageArrays, i32 0, i32 1), align 8
  store ptr null, ptr getelementptr inbounds ([2 x %struct.InvalMessageArray], ptr @InvalMessageArrays, i64 0, i64 1), align 16
  store i32 0, ptr getelementptr inbounds nuw (%struct.InvalMessageArray, ptr getelementptr inbounds ([2 x %struct.InvalMessageArray], ptr @InvalMessageArrays, i64 0, i64 1), i32 0, i32 1), align 8
  br label %143

143:                                              ; preds = %142, %141
  %144 = load ptr, ptr %2, align 8
  store ptr %144, ptr @transInvalInfo, align 8
  %145 = load ptr, ptr %2, align 8
  store ptr %145, ptr %1, align 8
  store i32 1, ptr %3, align 4
  br label %146

146:                                              ; preds = %143, %12
  call void @llvm.lifetime.end.p0(i64 8, ptr %2) #7
  %147 = load ptr, ptr %1, align 8
  ret ptr %147
}