; Function Attrs: nounwind uwtable
define internal ptr @PrepareInvalidationState() #0 {
  %1 = load ptr, ptr @transInvalInfo, align 8
  %.not = icmp eq ptr %1, null
  br i1 %.not, label %9, label %2

2:                                                ; preds = %0
  %3 = getelementptr inbounds nuw i8, ptr %1, i64 48
  %4 = load i32, ptr %3, align 8
  %5 = tail call i32 @GetCurrentTransactionNestLevel() #7
  %6 = icmp eq i32 %4, %5
  br i1 %6, label %7, label %9

7:                                                ; preds = %2
  %8 = load ptr, ptr @transInvalInfo, align 8
  br label %40

9:                                                ; preds = %2, %0
  %10 = load ptr, ptr @TopTransactionContext, align 8
  %11 = tail call ptr @MemoryContextAllocZero(ptr noundef %10, i64 noundef 56) #7
  %12 = load ptr, ptr @transInvalInfo, align 8
  %13 = getelementptr inbounds nuw i8, ptr %11, i64 40
  store ptr %12, ptr %13, align 8
  %14 = tail call i32 @GetCurrentTransactionNestLevel() #7
  %15 = getelementptr inbounds nuw i8, ptr %11, i64 48
  store i32 %14, ptr %15, align 8
  %16 = load ptr, ptr @transInvalInfo, align 8
  %.not17 = icmp eq ptr %16, null
  br i1 %.not17, label %38, label %17

17:                                               ; preds = %9
  %18 = getelementptr inbounds nuw i8, ptr %16, i64 8
  %19 = load i32, ptr %18, align 8
  %20 = load i32, ptr %16, align 8
  %21 = sub i32 %19, %20
  %22 = getelementptr inbounds nuw i8, ptr %16, i64 12
  %23 = load i32, ptr %22, align 4
  %24 = getelementptr inbounds nuw i8, ptr %16, i64 4
  %25 = load i32, ptr %24, align 4
  %.neg = sub i32 %25, %23
  %.not18 = icmp eq i32 %21, %.neg
  br i1 %.not18, label %29, label %26

26:                                               ; preds = %17
  %27 = tail call zeroext i1 @errstart_cold(i32 noundef 21, ptr noundef null) #8
  tail call void @llvm.assume(i1 %27)
  %28 = tail call i32 (ptr, ...) @errmsg_internal(ptr noundef nonnull @.str.11) #7
  tail call void @errfinish(ptr noundef nonnull @.str.1, i32 noundef 664, ptr noundef nonnull @__func__.PrepareInvalidationState) #7
  unreachable

29:                                               ; preds = %17
  %30 = getelementptr inbounds nuw i8, ptr %11, i64 20
  %31 = getelementptr inbounds nuw i8, ptr %11, i64 28
  store i32 %19, ptr %31, align 4
  store i32 %19, ptr %30, align 4
  %32 = load i32, ptr %22, align 4
  %33 = getelementptr inbounds nuw i8, ptr %11, i64 32
  store i32 %32, ptr %33, align 4
  %34 = getelementptr inbounds nuw i8, ptr %11, i64 24
  store i32 %32, ptr %34, align 4
  %35 = getelementptr inbounds nuw i8, ptr %11, i64 8
  store i32 %19, ptr %35, align 8
  store i32 %19, ptr %11, align 8
  %36 = getelementptr inbounds nuw i8, ptr %11, i64 12
  store i32 %32, ptr %36, align 4
  %37 = getelementptr inbounds nuw i8, ptr %11, i64 4
  store i32 %32, ptr %37, align 4
  br label %39

38:                                               ; preds = %9
  store ptr null, ptr @InvalMessageArrays.0, align 16
  store i32 0, ptr @InvalMessageArrays.1, align 8
  store ptr null, ptr @InvalMessageArrays.2, align 16
  store i32 0, ptr @InvalMessageArrays.3, align 8
  br label %39

39:                                               ; preds = %38, %29
  store ptr %11, ptr @transInvalInfo, align 8
  br label %40

40:                                               ; preds = %39, %7
  %.0 = phi ptr [ %8, %7 ], [ %11, %39 ]
  ret ptr %.0
}